target datalayout = "e-m:e-p270:32:32-p271:32:32-p272:64:64-i64:64-i128:128-f80:128-n8:16:32:64-S128"
target triple = "x86_64-pc-linux-gnu"

%struct.expert_field = type { i32, i32 }
%struct.ieee80211_tagged_field_data = type { i32, ptr, i8, ptr, ptr }

@ei_ieee80211_tag_length = internal global %struct.expert_field zeroinitializer, align 4
@hf_ieee80211_tag_dmg_capa_sta_addr = internal global i32 0, align 4
@hf_ieee80211_tag_dmg_capa_aid = internal global i32 0, align 4
@hf_ieee80211_tag_sta_beam_track = internal global i32 0, align 4
@hf_ieee80211_tag_max_basic_sf_amsdu = internal global i32 0, align 4
@hf_ieee80211_tag_max_short_sf_amsdu = internal global i32 0, align 4
@ieee80211_tag_dmg_capabilities.ieee80211_tag_dmg_cap5 = internal constant [5 x ptr] [ptr @hf_ieee80211_tag_ext_sc_mcs_max_tx, ptr @hf_ieee80211_tag_ext_sc_mcs_tx_code_7_8, ptr @hf_ieee80211_tag_ext_sc_mcs_max_rx, ptr @hf_ieee80211_tag_ext_sc_mcs_rx_code_7_8, ptr null], align 16
@.str.10249 = private unnamed_addr constant [52 x i8] c"Tag Length %u wrong, must contain at least 17 bytes\00", align 1
@.str.10250 = private unnamed_addr constant [75 x i8] c"Tag Length %u does not conform to IEEE802.11-2016, should contain 22 bytes\00", align 1

; Function Attrs: null_pointer_is_valid sspstrong uwtable
define internal i32 @ieee80211_tag_dmg_capabilities(ptr noundef %0, ptr noundef %1, ptr noundef %2, ptr noundef %3) #1 {
  %5 = alloca i32, align 4
  %6 = alloca ptr, align 8
  %7 = alloca ptr, align 8
  %8 = alloca ptr, align 8
  %9 = alloca ptr, align 8
  %10 = alloca i32, align 4
  %11 = alloca ptr, align 8
  %12 = alloca i32, align 4
  %13 = alloca i32, align 4
  store ptr %0, ptr %6, align 8
  store ptr %1, ptr %7, align 8
  store ptr %2, ptr %8, align 8
  store ptr %3, ptr %9, align 8
  call void @llvm.lifetime.start.p0(i64 4, ptr %10) #19
  %14 = load ptr, ptr %6, align 8
  %15 = call i32 @tvb_reported_length(ptr noundef %14)
  store i32 %15, ptr %10, align 4
  call void @llvm.lifetime.start.p0(i64 8, ptr %11) #19
  %16 = load ptr, ptr %9, align 8
  store ptr %16, ptr %11, align 8
  call void @llvm.lifetime.start.p0(i64 4, ptr %12) #19
  store i32 0, ptr %12, align 4
  %17 = load i32, ptr %10, align 4
  %18 = icmp slt i32 %17, 17
  br i1 %18, label %19, label %28

19:                                               ; preds = %4
  %20 = load ptr, ptr %7, align 8
  %21 = load ptr, ptr %11, align 8
  %22 = getelementptr inbounds nuw %struct.ieee80211_tagged_field_data, ptr %21, i32 0, i32 4
  %23 = load ptr, ptr %22, align 8
  %24 = load i32, ptr %10, align 4
  %25 = call ptr (ptr, ptr, ptr, ptr, ...) @expert_add_info_format(ptr noundef %20, ptr noundef %23, ptr noundef @ei_ieee80211_tag_length, ptr noundef @.str.10249, i32 noundef %24)
  %26 = load ptr, ptr %6, align 8
  %27 = call i32 @tvb_captured_length(ptr noundef %26)
  store i32 %27, ptr %5, align 4
  store i32 1, ptr %13, align 4
  br label %101

28:                                               ; preds = %4
  %29 = load ptr, ptr %8, align 8
  %30 = load i32, ptr @hf_ieee80211_tag_dmg_capa_sta_addr, align 4
  %31 = load ptr, ptr %6, align 8
  %32 = load i32, ptr %12, align 4
  %33 = call ptr @proto_tree_add_item(ptr noundef %29, i32 noundef %30, ptr noundef %31, i32 noundef %32, i32 noundef 6, i32 noundef 0)
  %34 = load i32, ptr %12, align 4
  %35 = add i32 %34, 6
  store i32 %35, ptr %12, align 4
  %36 = load ptr, ptr %8, align 8
  %37 = load i32, ptr @hf_ieee80211_tag_dmg_capa_aid, align 4
  %38 = load ptr, ptr %6, align 8
  %39 = load i32, ptr %12, align 4
  %40 = call ptr @proto_tree_add_item(ptr noundef %36, i32 noundef %37, ptr noundef %38, i32 noundef %39, i32 noundef 1, i32 noundef 0)
  %41 = load i32, ptr %12, align 4
  %42 = add i32 %41, 1
  store i32 %42, ptr %12, align 4
  %43 = load ptr, ptr %8, align 8
  %44 = load ptr, ptr %6, align 8
  %45 = load i32, ptr %12, align 4
  call void @proto_tree_add_bitmask_list(ptr noundef %43, ptr noundef %44, i32 noundef %45, i32 noundef 3, ptr noundef @ieee80211_tag_dmg_capabilities.ieee80211_tag_dmg_cap1, i32 noundef -2147483648)
  %46 = load i32, ptr %12, align 4
  %47 = add i32 %46, 3
  store i32 %47, ptr %12, align 4
  %48 = load ptr, ptr %8, align 8
  %49 = load ptr, ptr %6, align 8
  %50 = load i32, ptr %12, align 4
  call void @proto_tree_add_bitmask_list(ptr noundef %48, ptr noundef %49, i32 noundef %50, i32 noundef 3, ptr noundef @ieee80211_tag_dmg_capabilities.ieee80211_tag_dmg_cap2, i32 noundef -2147483648)
  %51 = load i32, ptr %12, align 4
  %52 = add i32 %51, 3
  store i32 %52, ptr %12, align 4
  %53 = load ptr, ptr %8, align 8
  %54 = load ptr, ptr %6, align 8
  %55 = load i32, ptr %12, align 4
  call void @proto_tree_add_bitmask_list(ptr noundef %53, ptr noundef %54, i32 noundef %55, i32 noundef 2, ptr noundef @ieee80211_tag_dmg_capabilities.ieee80211_tag_dmg_cap3, i32 noundef -2147483648)
  %56 = load i32, ptr %12, align 4
  %57 = add i32 %56, 2
  store i32 %57, ptr %12, align 4
  %58 = load ptr, ptr %8, align 8
  %59 = load ptr, ptr %6, align 8
  %60 = load i32, ptr %12, align 4
  call void @proto_tree_add_bitmask_list(ptr noundef %58, ptr noundef %59, i32 noundef %60, i32 noundef 2, ptr noundef @ieee80211_tag_dmg_capabilities.ieee80211_tag_dmg_cap4, i32 noundef -2147483648)
  %61 = load i32, ptr %12, align 4
  %62 = add i32 %61, 2
  store i32 %62, ptr %12, align 4
  %63 = load i32, ptr %10, align 4
  %64 = icmp ne i32 %63, 22
  br i1 %64, label %65, label %74

65:                                               ; preds = %28
  %66 = load ptr, ptr %7, align 8
  %67 = load ptr, ptr %11, align 8
  %68 = getelementptr inbounds nuw %struct.ieee80211_tagged_field_data, ptr %67, i32 0, i32 4
  %69 = load ptr, ptr %68, align 8
  %70 = load i32, ptr %10, align 4
  %71 = call ptr (ptr, ptr, ptr, ptr, ...) @expert_add_info_format(ptr noundef %66, ptr noundef %69, ptr noundef @ei_ieee80211_tag_length, ptr noundef @.str.10250, i32 noundef %70)
  %72 = load ptr, ptr %6, align 8
  %73 = call i32 @tvb_captured_length(ptr noundef %72)
  store i32 %73, ptr %5, align 4
  store i32 1, ptr %13, align 4
  br label %101

74:                                               ; preds = %28
  %75 = load ptr, ptr %8, align 8
  %76 = load i32, ptr @hf_ieee80211_tag_sta_beam_track, align 4
  %77 = load ptr, ptr %6, align 8
  %78 = load i32, ptr %12, align 4
  %79 = call ptr @proto_tree_add_item(ptr noundef %75, i32 noundef %76, ptr noundef %77, i32 noundef %78, i32 noundef 2, i32 noundef 0)
  %80 = load i32, ptr %12, align 4
  %81 = add i32 %80, 2
  store i32 %81, ptr %12, align 4
  %82 = load ptr, ptr %8, align 8
  %83 = load ptr, ptr %6, align 8
  %84 = load i32, ptr %12, align 4
  call void @proto_tree_add_bitmask_list(ptr noundef %82, ptr noundef %83, i32 noundef %84, i32 noundef 1, ptr noundef @ieee80211_tag_dmg_capabilities.ieee80211_tag_dmg_cap5, i32 noundef -2147483648)
  %85 = load i32, ptr %12, align 4
  %86 = add i32 %85, 1
  store i32 %86, ptr %12, align 4
  %87 = load ptr, ptr %8, align 8
  %88 = load i32, ptr @hf_ieee80211_tag_max_basic_sf_amsdu, align 4
  %89 = load ptr, ptr %6, align 8
  %90 = load i32, ptr %12, align 4
  %91 = call ptr @proto_tree_add_item(ptr noundef %87, i32 noundef %88, ptr noundef %89, i32 noundef %90, i32 noundef 1, i32 noundef 0)
  %92 = load i32, ptr %12, align 4
  %93 = add i32 %92, 1
  store i32 %93, ptr %12, align 4
  %94 = load ptr, ptr %8, align 8
  %95 = load i32, ptr @hf_ieee80211_tag_max_short_sf_amsdu, align 4
  %96 = load ptr, ptr %6, align 8
  %97 = load i32, ptr %12, align 4
  %98 = call ptr @proto_tree_add_item(ptr noundef %94, i32 noundef %95, ptr noundef %96, i32 noundef %97, i32 noundef 1, i32 noundef 0)
  %99 = load ptr, ptr %6, align 8
  %100 = call i32 @tvb_captured_length(ptr noundef %99)
  store i32 %100, ptr %5, align 4
  store i32 1, ptr %13, align 4
  br label %101

101:                                              ; preds = %74, %65, %19
  call void @llvm.lifetime.end.p0(i64 4, ptr %12) #19
  call void @llvm.lifetime.end.p0(i64 8, ptr %11) #19
  call void @llvm.lifetime.end.p0(i64 4, ptr %10) #19
  %102 = load i32, ptr %5, align 4
  ret i32 %102
}