; Function Attrs: null_pointer_is_valid sspstrong uwtable
define internal i32 @ieee80211_tag_dmg_capabilities(ptr noundef %0, ptr noundef %1, ptr noundef %2, ptr noundef readonly captures(none) %3) #2 {
  %5 = tail call i32 @tvb_reported_length(ptr noundef %0)
  %6 = icmp slt i32 %5, 17
  br i1 %6, label %7, label %11

7:                                                ; preds = %4
  %8 = getelementptr inbounds nuw i8, ptr %3, i64 32
  %9 = load ptr, ptr %8, align 8
  %10 = tail call ptr (ptr, ptr, ptr, ptr, ...) @expert_add_info_format(ptr noundef %1, ptr noundef %9, ptr noundef nonnull @ei_ieee80211_tag_length, ptr noundef nonnull @.str.10249, i32 noundef %5)
  br label %27

11:                                               ; preds = %4
  %12 = load i32, ptr @hf_ieee80211_tag_dmg_capa_sta_addr, align 4
  %13 = tail call ptr @proto_tree_add_item(ptr noundef %2, i32 noundef %12, ptr noundef %0, i32 noundef 0, i32 noundef 6, i32 noundef 0)
  %14 = load i32, ptr @hf_ieee80211_tag_dmg_capa_aid, align 4
  %15 = tail call ptr @proto_tree_add_item(ptr noundef %2, i32 noundef %14, ptr noundef %0, i32 noundef 6, i32 noundef 1, i32 noundef 0)
  tail call void @proto_tree_add_bitmask_list(ptr noundef %2, ptr noundef %0, i32 noundef 7, i32 noundef 3, ptr noundef nonnull @ieee80211_tag_dmg_capabilities.ieee80211_tag_dmg_cap1, i32 noundef -2147483648)
  tail call void @proto_tree_add_bitmask_list(ptr noundef %2, ptr noundef %0, i32 noundef 10, i32 noundef 3, ptr noundef nonnull @ieee80211_tag_dmg_capabilities.ieee80211_tag_dmg_cap2, i32 noundef -2147483648)
  tail call void @proto_tree_add_bitmask_list(ptr noundef %2, ptr noundef %0, i32 noundef 13, i32 noundef 2, ptr noundef nonnull @ieee80211_tag_dmg_capabilities.ieee80211_tag_dmg_cap3, i32 noundef -2147483648)
  tail call void @proto_tree_add_bitmask_list(ptr noundef %2, ptr noundef %0, i32 noundef 15, i32 noundef 2, ptr noundef nonnull @ieee80211_tag_dmg_capabilities.ieee80211_tag_dmg_cap4, i32 noundef -2147483648)
  %.not = icmp eq i32 %5, 22
  br i1 %.not, label %20, label %16

16:                                               ; preds = %11
  %17 = getelementptr inbounds nuw i8, ptr %3, i64 32
  %18 = load ptr, ptr %17, align 8
  %19 = tail call ptr (ptr, ptr, ptr, ptr, ...) @expert_add_info_format(ptr noundef %1, ptr noundef %18, ptr noundef nonnull @ei_ieee80211_tag_length, ptr noundef nonnull @.str.10250, i32 noundef %5)
  br label %27

20:                                               ; preds = %11
  %21 = load i32, ptr @hf_ieee80211_tag_sta_beam_track, align 4
  %22 = tail call ptr @proto_tree_add_item(ptr noundef %2, i32 noundef %21, ptr noundef %0, i32 noundef 17, i32 noundef 2, i32 noundef 0)
  tail call void @proto_tree_add_bitmask_list(ptr noundef %2, ptr noundef %0, i32 noundef 19, i32 noundef 1, ptr noundef nonnull @ieee80211_tag_dmg_capabilities.ieee80211_tag_dmg_cap5, i32 noundef -2147483648)
  %23 = load i32, ptr @hf_ieee80211_tag_max_basic_sf_amsdu, align 4
  %24 = tail call ptr @proto_tree_add_item(ptr noundef %2, i32 noundef %23, ptr noundef %0, i32 noundef 20, i32 noundef 1, i32 noundef 0)
  %25 = load i32, ptr @hf_ieee80211_tag_max_short_sf_amsdu, align 4
  %26 = tail call ptr @proto_tree_add_item(ptr noundef %2, i32 noundef %25, ptr noundef %0, i32 noundef 21, i32 noundef 1, i32 noundef 0)
  br label %27

27:                                               ; preds = %20, %16, %7
  %28 = tail call i32 @tvb_captured_length(ptr noundef %0)
  ret i32 %28
}